target datalayout = "e-m:e-p270:32:32-p271:32:32-p272:64:64-i64:64-i128:128-f80:128-n8:16:32:64-S128"
target triple = "x86_64-pc-linux-gnu"

%struct.archive_read = type { %struct.archive, ptr, i32, i64, i64, %struct.archive_read_client, [16 x %struct.archive_read_filter_bidder], ptr, i32, i64, i32, i32, [16 x %struct.archive_format_descriptor], ptr, ptr, ptr, %struct.anon }
%struct.archive = type { i32, i32, ptr, i32, ptr, i32, i32, ptr, %struct.archive_string, ptr, i32, i32, ptr, ptr, i64, i64, i64, i8, i64 }
%struct.archive_string = type { ptr, i64, i64 }
%struct.archive_read_client = type { ptr, ptr, ptr, ptr, ptr, ptr, i32, i32, i64, ptr }
%struct.archive_read_filter_bidder = type { ptr, ptr, ptr }
%struct.archive_format_descriptor = type { ptr, ptr, ptr, ptr, ptr, ptr, ptr, ptr, ptr, ptr, ptr }
%struct.anon = type { ptr, ptr, i32, ptr, ptr }
%struct.mtree_option = type { ptr, ptr }

@.str.45 = private unnamed_addr constant [22 x i8] c"Can't allocate memory\00", align 1

; Function Attrs: nounwind uwtable
define internal i32 @add_option(ptr noundef %0, ptr noundef %1, ptr noundef %2, i64 noundef %3) #0 {
  %5 = alloca i32, align 4
  %6 = alloca ptr, align 8
  %7 = alloca ptr, align 8
  %8 = alloca ptr, align 8
  %9 = alloca i64, align 8
  %10 = alloca ptr, align 8
  store ptr %0, ptr %6, align 8
  store ptr %1, ptr %7, align 8
  store ptr %2, ptr %8, align 8
  store i64 %3, ptr %9, align 8
  %11 = call noalias ptr @malloc(i64 noundef 16) #12
  store ptr %11, ptr %10, align 8
  %12 = icmp eq ptr %11, null
  br i1 %12, label %13, label %18

13:                                               ; preds = %4
  %14 = load ptr, ptr %6, align 8
  %15 = getelementptr inbounds %struct.archive_read, ptr %14, i32 0, i32 0
  %16 = call ptr @__errno_location() #13
  %17 = load i32, ptr %16, align 4
  call void (ptr, i32, ptr, ...) @archive_set_error(ptr noundef %15, i32 noundef %17, ptr noundef @.str.45)
  store i32 -30, ptr %5, align 4
  br label %48

18:                                               ; preds = %4
  %19 = load i64, ptr %9, align 8
  %20 = add i64 %19, 1
  %21 = call noalias ptr @malloc(i64 noundef %20) #12
  %22 = load ptr, ptr %10, align 8
  %23 = getelementptr inbounds %struct.mtree_option, ptr %22, i32 0, i32 1
  store ptr %21, ptr %23, align 8
  %24 = icmp eq ptr %21, null
  br i1 %24, label %25, label %31

25:                                               ; preds = %18
  %26 = load ptr, ptr %10, align 8
  call void @free(ptr noundef %26) #10
  %27 = load ptr, ptr %6, align 8
  %28 = getelementptr inbounds %struct.archive_read, ptr %27, i32 0, i32 0
  %29 = call ptr @__errno_location() #13
  %30 = load i32, ptr %29, align 4
  call void (ptr, i32, ptr, ...) @archive_set_error(ptr noundef %28, i32 noundef %30, ptr noundef @.str.45)
  store i32 -30, ptr %5, align 4
  br label %48

31:                                               ; preds = %18
  %32 = load ptr, ptr %10, align 8
  %33 = getelementptr inbounds %struct.mtree_option, ptr %32, i32 0, i32 1
  %34 = load ptr, ptr %33, align 8
  %35 = load ptr, ptr %8, align 8
  %36 = load i64, ptr %9, align 8
  call void @llvm.memcpy.p0.p0.i64(ptr align 1 %34, ptr align 1 %35, i64 %36, i1 false)
  %37 = load ptr, ptr %10, align 8
  %38 = getelementptr inbounds %struct.mtree_option, ptr %37, i32 0, i32 1
  %39 = load ptr, ptr %38, align 8
  %40 = load i64, ptr %9, align 8
  %41 = getelementptr inbounds i8, ptr %39, i64 %40
  store i8 0, ptr %41, align 1
  %42 = load ptr, ptr %7, align 8
  %43 = load ptr, ptr %42, align 8
  %44 = load ptr, ptr %10, align 8
  %45 = getelementptr inbounds %struct.mtree_option, ptr %44, i32 0, i32 0
  store ptr %43, ptr %45, align 8
  %46 = load ptr, ptr %10, align 8
  %47 = load ptr, ptr %7, align 8
  store ptr %46, ptr %47, align 8
  store i32 0, ptr %5, align 4
  br label %48

48:                                               ; preds = %31, %25, %13
  %49 = load i32, ptr %5, align 4
  ret i32 %49
}