; Function Attrs: nounwind uwtable
define internal fastcc range(i32 -30, 1) i32 @add_option(ptr noundef %0, ptr noundef nonnull captures(none) %1, ptr noundef readonly captures(none) %2, i64 noundef %3) unnamed_addr #0 {
  %5 = tail call noalias dereferenceable_or_null(16) ptr @malloc(i64 noundef 16) #23
  %6 = icmp eq ptr %5, null
  br i1 %6, label %7, label %10

7:                                                ; preds = %4
  %8 = tail call ptr @__errno_location() #22
  %9 = load i32, ptr %8, align 4
  tail call void (ptr, i32, ptr, ...) @archive_set_error(ptr noundef %0, i32 noundef %9, ptr noundef nonnull @.str.45) #19
  br label %21

10:                                               ; preds = %4
  %11 = add i64 %3, 1
  %12 = tail call noalias ptr @malloc(i64 noundef %11) #23
  %13 = getelementptr inbounds nuw i8, ptr %5, i64 8
  store ptr %12, ptr %13, align 8
  %14 = icmp eq ptr %12, null
  br i1 %14, label %15, label %18

15:                                               ; preds = %10
  tail call void @free(ptr noundef nonnull %5) #19
  %16 = tail call ptr @__errno_location() #22
  %17 = load i32, ptr %16, align 4
  tail call void (ptr, i32, ptr, ...) @archive_set_error(ptr noundef %0, i32 noundef %17, ptr noundef nonnull @.str.45) #19
  br label %21

18:                                               ; preds = %10
  tail call void @llvm.memcpy.p0.p0.i64(ptr nonnull align 1 %12, ptr align 1 %2, i64 %3, i1 false)
  %19 = getelementptr inbounds i8, ptr %12, i64 %3
  store i8 0, ptr %19, align 1
  %20 = load ptr, ptr %1, align 8
  store ptr %20, ptr %5, align 8
  store ptr %5, ptr %1, align 8
  br label %21

21:                                               ; preds = %18, %15, %7
  %.0 = phi i32 [ -30, %7 ], [ -30, %15 ], [ 0, %18 ]
  ret i32 %.0
}